target datalayout = "e-m:e-p270:32:32-p271:32:32-p272:64:64-i64:64-i128:128-f80:128-n8:16:32:64-S128"
target triple = "x86_64-pc-linux-gnu"

%struct.bitmap_writer = type { ptr, ptr, ptr, ptr, ptr, ptr, ptr, i32, i32, %struct.string_list, ptr, i32, ptr, i32, [32 x i8] }
%struct.string_list = type { ptr, i64, i64, i8, ptr }
%struct.object_id = type { [32 x i8], i32 }
%struct.commit = type { %struct.object, i64, ptr, ptr, i32 }
%struct.object = type { i32, %struct.object_id }
%struct.commit_list = type { ptr, ptr }

@the_repository = external global ptr, align 8
@.str.9 = private unnamed_addr constant [25 x i8] c"Selecting bitmap commits\00", align 1
@.str.15 = private unnamed_addr constant [1 x i8] zeroinitializer, align 1
@git_gettext_enabled = external global i32, align 4
@.str.22 = private unnamed_addr constant [5 x i8] c"done\00", align 1

; Function Attrs: inlinehint nounwind uwtable
define internal ptr @_(ptr noundef %0) #3 {
  %2 = alloca ptr, align 8
  %3 = alloca ptr, align 8
  store ptr %0, ptr %3, align 8, !tbaa !52
  %4 = load ptr, ptr %3, align 8, !tbaa !52
  %5 = load i8, ptr %4, align 1, !tbaa !72
  %6 = icmp ne i8 %5, 0
  br i1 %6, label %8, label %7

7:                                                ; preds = %1
  store ptr @.str.15, ptr %2, align 8
  br label %16

8:                                                ; preds = %1
  %9 = load i32, ptr @git_gettext_enabled, align 4, !tbaa !29
  %10 = icmp ne i32 %9, 0
  br i1 %10, label %13, label %11

11:                                               ; preds = %8
  %12 = load ptr, ptr %3, align 8, !tbaa !52
  store ptr %12, ptr %2, align 8
  br label %16

13:                                               ; preds = %8
  %14 = load ptr, ptr %3, align 8, !tbaa !52
  %15 = call ptr @dcgettext(ptr noundef null, ptr noundef %14, i32 noundef 5) #12
  store ptr %15, ptr %2, align 8
  br label %16

16:                                               ; preds = %13, %11, %7
  %17 = load ptr, ptr %2, align 8
  ret ptr %17
}

; Function Attrs: inlinehint nounwind uwtable
define internal void @stop_progress(ptr noundef %0) #3 {
  %2 = alloca ptr, align 8
  store ptr %0, ptr %2, align 8, !tbaa !132
  %3 = load ptr, ptr %2, align 8, !tbaa !132
  %4 = call ptr @_(ptr noundef @.str.22)
  call void @stop_progress_msg(ptr noundef %3, ptr noundef %4)
  ret void
}

; Function Attrs: inlinehint nounwind uwtable
define internal i32 @next_commit_index(i32 noundef %0) #3 {
  %2 = alloca i32, align 4
  %3 = alloca i32, align 4
  %4 = alloca i32, align 4
  %5 = alloca i32, align 4
  %6 = alloca i32, align 4
  store i32 %0, ptr %3, align 4, !tbaa !29
  call void @llvm.lifetime.start.p0(i64 4, ptr %4) #12
  call void @llvm.lifetime.start.p0(i64 4, ptr %5) #12
  %7 = load i32, ptr %3, align 4, !tbaa !29
  %8 = icmp ule i32 %7, 100
  br i1 %8, label %9, label %10

9:                                                ; preds = %1
  store i32 0, ptr %2, align 4
  store i32 1, ptr %6, align 4
  br label %40

10:                                               ; preds = %1
  %11 = load i32, ptr %3, align 4, !tbaa !29
  %12 = icmp ule i32 %11, 20000
  br i1 %12, label %13, label %23

13:                                               ; preds = %10
  %14 = load i32, ptr %3, align 4, !tbaa !29
  %15 = sub i32 %14, 100
  store i32 %15, ptr %4, align 4, !tbaa !29
  %16 = load i32, ptr %4, align 4, !tbaa !29
  %17 = icmp ult i32 %16, 100
  br i1 %17, label %18, label %20

18:                                               ; preds = %13
  %19 = load i32, ptr %4, align 4, !tbaa !29
  br label %21

20:                                               ; preds = %13
  br label %21

21:                                               ; preds = %20, %18
  %22 = phi i32 [ %19, %18 ], [ 100, %20 ]
  store i32 %22, ptr %2, align 4
  store i32 1, ptr %6, align 4
  br label %40

23:                                               ; preds = %10
  %24 = load i32, ptr %3, align 4, !tbaa !29
  %25 = sub i32 %24, 20000
  store i32 %25, ptr %4, align 4, !tbaa !29
  %26 = load i32, ptr %4, align 4, !tbaa !29
  %27 = icmp ult i32 %26, 5000
  br i1 %27, label %28, label %30

28:                                               ; preds = %23
  %29 = load i32, ptr %4, align 4, !tbaa !29
  br label %31

30:                                               ; preds = %23
  br label %31

31:                                               ; preds = %30, %28
  %32 = phi i32 [ %29, %28 ], [ 5000, %30 ]
  store i32 %32, ptr %5, align 4, !tbaa !29
  %33 = load i32, ptr %5, align 4, !tbaa !29
  %34 = icmp ugt i32 %33, 100
  br i1 %34, label %35, label %37

35:                                               ; preds = %31
  %36 = load i32, ptr %5, align 4, !tbaa !29
  br label %38

37:                                               ; preds = %31
  br label %38

38:                                               ; preds = %37, %35
  %39 = phi i32 [ %36, %35 ], [ 100, %37 ]
  store i32 %39, ptr %2, align 4
  store i32 1, ptr %6, align 4
  br label %40

40:                                               ; preds = %38, %21, %9
  call void @llvm.lifetime.end.p0(i64 4, ptr %5) #12
  call void @llvm.lifetime.end.p0(i64 4, ptr %4) #12
  %41 = load i32, ptr %2, align 4
  ret i32 %41
}

; Function Attrs: inlinehint nounwind uwtable
define internal void @sane_qsort(ptr noundef %0, i64 noundef %1, i64 noundef %2, ptr noundef %3) #3 {
  %5 = alloca ptr, align 8
  %6 = alloca i64, align 8
  %7 = alloca i64, align 8
  %8 = alloca ptr, align 8
  store ptr %0, ptr %5, align 8, !tbaa !36
  store i64 %1, ptr %6, align 8, !tbaa !68
  store i64 %2, ptr %7, align 8, !tbaa !68
  store ptr %3, ptr %8, align 8, !tbaa !36
  %9 = load i64, ptr %6, align 8, !tbaa !68
  %10 = icmp ugt i64 %9, 1
  br i1 %10, label %11, label %16

11:                                               ; preds = %4
  %12 = load ptr, ptr %5, align 8, !tbaa !36
  %13 = load i64, ptr %6, align 8, !tbaa !68
  %14 = load i64, ptr %7, align 8, !tbaa !68
  %15 = load ptr, ptr %8, align 8, !tbaa !36
  call void @qsort(ptr noundef %12, i64 noundef %13, i64 noundef %14, ptr noundef %15)
  br label %16

16:                                               ; preds = %11, %4
  ret void
}

; Function Attrs: nounwind uwtable
define dso_local void @bitmap_writer_select_commits(ptr noundef %0, ptr noundef %1, i32 noundef %2) #0 {
  %4 = alloca ptr, align 8
  %5 = alloca ptr, align 8
  %6 = alloca i32, align 4
  %7 = alloca i32, align 4
  %8 = alloca i32, align 4
  %9 = alloca i32, align 4
  %10 = alloca i32, align 4
  %11 = alloca ptr, align 8
  %12 = alloca ptr, align 8
  store ptr %0, ptr %4, align 8, !tbaa !4
  store ptr %1, ptr %5, align 8, !tbaa !139
  store i32 %2, ptr %6, align 4, !tbaa !29
  call void @llvm.lifetime.start.p0(i64 4, ptr %7) #12
  store i32 0, ptr %7, align 4, !tbaa !29
  call void @llvm.lifetime.start.p0(i64 4, ptr %8) #12
  call void @llvm.lifetime.start.p0(i64 4, ptr %9) #12
  %13 = load ptr, ptr %5, align 8, !tbaa !139
  %14 = load i32, ptr %6, align 4, !tbaa !29
  %15 = zext i32 %14 to i64
  call void @sane_qsort(ptr noundef %13, i64 noundef %15, i64 noundef 8, ptr noundef @date_compare)
  %16 = load i32, ptr %6, align 4, !tbaa !29
  %17 = icmp ult i32 %16, 100
  br i1 %17, label %18, label %35

18:                                               ; preds = %3
  store i32 0, ptr %7, align 4, !tbaa !29
  br label %19

19:                                               ; preds = %30, %18
  %20 = load i32, ptr %7, align 4, !tbaa !29
  %21 = load i32, ptr %6, align 4, !tbaa !29
  %22 = icmp ult i32 %20, %21
  br i1 %22, label %23, label %33

23:                                               ; preds = %19
  %24 = load ptr, ptr %4, align 8, !tbaa !4
  %25 = load ptr, ptr %5, align 8, !tbaa !139
  %26 = load i32, ptr %7, align 4, !tbaa !29
  %27 = zext i32 %26 to i64
  %28 = getelementptr inbounds nuw ptr, ptr %25, i64 %27
  %29 = load ptr, ptr %28, align 8, !tbaa !75
  call void @bitmap_writer_push_commit(ptr noundef %24, ptr noundef %29, i32 noundef 0)
  br label %30

30:                                               ; preds = %23
  %31 = load i32, ptr %7, align 4, !tbaa !29
  %32 = add i32 %31, 1
  store i32 %32, ptr %7, align 4, !tbaa !29
  br label %19, !llvm.loop !140

33:                                               ; preds = %19
  %34 = load ptr, ptr %4, align 8, !tbaa !4
  call void @select_pseudo_merges(ptr noundef %34)
  store i32 1, ptr %10, align 4
  br label %133

35:                                               ; preds = %3
  %36 = load ptr, ptr %4, align 8, !tbaa !4
  %37 = getelementptr inbounds nuw %struct.bitmap_writer, ptr %36, i32 0, i32 13
  %38 = load i32, ptr %37, align 8, !tbaa !54
  %39 = icmp ne i32 %38, 0
  br i1 %39, label %40, label %45

40:                                               ; preds = %35
  %41 = load ptr, ptr @the_repository, align 8, !tbaa !9
  %42 = call ptr @start_progress(ptr noundef %41, ptr noundef @.str.9, i64 noundef 0)
  %43 = load ptr, ptr %4, align 8, !tbaa !4
  %44 = getelementptr inbounds nuw %struct.bitmap_writer, ptr %43, i32 0, i32 12
  store ptr %42, ptr %44, align 8, !tbaa !84
  br label %45

45:                                               ; preds = %40, %35
  br label %46

46:                                               ; preds = %128, %45
  call void @llvm.lifetime.start.p0(i64 8, ptr %11) #12
  store ptr null, ptr %11, align 8, !tbaa !75
  %47 = load i32, ptr %7, align 4, !tbaa !29
  %48 = call i32 @next_commit_index(i32 noundef %47)
  store i32 %48, ptr %9, align 4, !tbaa !29
  %49 = load i32, ptr %7, align 4, !tbaa !29
  %50 = load i32, ptr %9, align 4, !tbaa !29
  %51 = add i32 %49, %50
  %52 = load i32, ptr %6, align 4, !tbaa !29
  %53 = icmp uge i32 %51, %52
  br i1 %53, label %54, label %55

54:                                               ; preds = %46
  store i32 5, ptr %10, align 4
  br label %126

55:                                               ; preds = %46
  %56 = load i32, ptr %9, align 4, !tbaa !29
  %57 = icmp eq i32 %56, 0
  br i1 %57, label %58, label %64

58:                                               ; preds = %55
  %59 = load ptr, ptr %5, align 8, !tbaa !139
  %60 = load i32, ptr %7, align 4, !tbaa !29
  %61 = zext i32 %60 to i64
  %62 = getelementptr inbounds nuw ptr, ptr %59, i64 %61
  %63 = load ptr, ptr %62, align 8, !tbaa !75
  store ptr %63, ptr %11, align 8, !tbaa !75
  br label %114

64:                                               ; preds = %55
  %65 = load ptr, ptr %5, align 8, !tbaa !139
  %66 = load i32, ptr %7, align 4, !tbaa !29
  %67 = load i32, ptr %9, align 4, !tbaa !29
  %68 = add i32 %66, %67
  %69 = zext i32 %68 to i64
  %70 = getelementptr inbounds nuw ptr, ptr %65, i64 %69
  %71 = load ptr, ptr %70, align 8, !tbaa !75
  store ptr %71, ptr %11, align 8, !tbaa !75
  store i32 0, ptr %8, align 4, !tbaa !29
  br label %72

72:                                               ; preds = %110, %64
  %73 = load i32, ptr %8, align 4, !tbaa !29
  %74 = load i32, ptr %9, align 4, !tbaa !29
  %75 = icmp ule i32 %73, %74
  br i1 %75, label %76, label %113

76:                                               ; preds = %72
  call void @llvm.lifetime.start.p0(i64 8, ptr %12) #12
  %77 = load ptr, ptr %5, align 8, !tbaa !139
  %78 = load i32, ptr %7, align 4, !tbaa !29
  %79 = load i32, ptr %8, align 4, !tbaa !29
  %80 = add i32 %78, %79
  %81 = zext i32 %80 to i64
  %82 = getelementptr inbounds nuw ptr, ptr %77, i64 %81
  %83 = load ptr, ptr %82, align 8, !tbaa !75
  store ptr %83, ptr %12, align 8, !tbaa !75
  %84 = load ptr, ptr %12, align 8, !tbaa !75
  %85 = getelementptr inbounds nuw %struct.commit, ptr %84, i32 0, i32 0
  %86 = load i32, ptr %85, align 8
  %87 = lshr i32 %86, 4
  %88 = and i32 %87, 4194304
  %89 = icmp ne i32 %88, 0
  br i1 %89, label %90, label %92

90:                                               ; preds = %76
  %91 = load ptr, ptr %12, align 8, !tbaa !75
  store ptr %91, ptr %11, align 8, !tbaa !75
  store i32 7, ptr %10, align 4
  br label %107

92:                                               ; preds = %76
  %93 = load ptr, ptr %12, align 8, !tbaa !75
  %94 = getelementptr inbounds nuw %struct.commit, ptr %93, i32 0, i32 2
  %95 = load ptr, ptr %94, align 8, !tbaa !107
  %96 = icmp ne ptr %95, null
  br i1 %96, label %97, label %106

97:                                               ; preds = %92
  %98 = load ptr, ptr %12, align 8, !tbaa !75
  %99 = getelementptr inbounds nuw %struct.commit, ptr %98, i32 0, i32 2
  %100 = load ptr, ptr %99, align 8, !tbaa !107
  %101 = getelementptr inbounds nuw %struct.commit_list, ptr %100, i32 0, i32 1
  %102 = load ptr, ptr %101, align 8, !tbaa !117
  %103 = icmp ne ptr %102, null
  br i1 %103, label %104, label %106

104:                                              ; preds = %97
  %105 = load ptr, ptr %12, align 8, !tbaa !75
  store ptr %105, ptr %11, align 8, !tbaa !75
  br label %106

106:                                              ; preds = %104, %97, %92
  store i32 0, ptr %10, align 4
  br label %107

107:                                              ; preds = %106, %90
  call void @llvm.lifetime.end.p0(i64 8, ptr %12) #12
  %108 = load i32, ptr %10, align 4
  switch i32 %108, label %136 [
    i32 0, label %109
    i32 7, label %113
  ]

109:                                              ; preds = %107
  br label %110

110:                                              ; preds = %109
  %111 = load i32, ptr %8, align 4, !tbaa !29
  %112 = add i32 %111, 1
  store i32 %112, ptr %8, align 4, !tbaa !29
  br label %72, !llvm.loop !141

113:                                              ; preds = %107, %72
  br label %114

114:                                              ; preds = %113, %58
  %115 = load ptr, ptr %4, align 8, !tbaa !4
  %116 = load ptr, ptr %11, align 8, !tbaa !75
  call void @bitmap_writer_push_commit(ptr noundef %115, ptr noundef %116, i32 noundef 0)
  %117 = load i32, ptr %9, align 4, !tbaa !29
  %118 = add i32 %117, 1
  %119 = load i32, ptr %7, align 4, !tbaa !29
  %120 = add i32 %119, %118
  store i32 %120, ptr %7, align 4, !tbaa !29
  %121 = load ptr, ptr %4, align 8, !tbaa !4
  %122 = getelementptr inbounds nuw %struct.bitmap_writer, ptr %121, i32 0, i32 12
  %123 = load ptr, ptr %122, align 8, !tbaa !84
  %124 = load i32, ptr %7, align 4, !tbaa !29
  %125 = zext i32 %124 to i64
  call void @display_progress(ptr noundef %123, i64 noundef %125)
  store i32 0, ptr %10, align 4
  br label %126

126:                                              ; preds = %114, %54
  call void @llvm.lifetime.end.p0(i64 8, ptr %11) #12
  %127 = load i32, ptr %10, align 4
  switch i32 %127, label %136 [
    i32 0, label %128
    i32 5, label %129
  ]

128:                                              ; preds = %126
  br label %46

129:                                              ; preds = %126
  %130 = load ptr, ptr %4, align 8, !tbaa !4
  %131 = getelementptr inbounds nuw %struct.bitmap_writer, ptr %130, i32 0, i32 12
  call void @stop_progress(ptr noundef %131)
  %132 = load ptr, ptr %4, align 8, !tbaa !4
  call void @select_pseudo_merges(ptr noundef %132)
  store i32 0, ptr %10, align 4
  br label %133

133:                                              ; preds = %129, %33
  call void @llvm.lifetime.end.p0(i64 4, ptr %9) #12
  call void @llvm.lifetime.end.p0(i64 4, ptr %8) #12
  call void @llvm.lifetime.end.p0(i64 4, ptr %7) #12
  %134 = load i32, ptr %10, align 4
  switch i32 %134, label %136 [
    i32 0, label %135
    i32 1, label %135
  ]

135:                                              ; preds = %133, %133
  ret void

136:                                              ; preds = %133, %126, %107
  unreachable
}