; Function Attrs: nounwind uwtable
define dso_local void @bitmap_writer_select_commits(ptr noundef %0, ptr noundef %1, i32 noundef %2) local_unnamed_addr #0 {
  %4 = icmp ugt i32 %2, 1
  br i1 %4, label %sane_qsort.exit, label %.preheader

sane_qsort.exit:                                  ; preds = %3
  %5 = zext i32 %2 to i64
  tail call void @qsort(ptr noundef %1, i64 noundef range(i64 0, 4294967296) %5, i64 noundef 8, ptr noundef nonnull @date_compare) #19
  %6 = icmp ult i32 %2, 100
  br i1 %6, label %.lr.ph.preheader, label %9

.preheader:                                       ; preds = %3
  %.not79 = icmp eq i32 %2, 0
  br i1 %.not79, label %._crit_edge, label %.lr.ph.preheader

.lr.ph.preheader:                                 ; preds = %sane_qsort.exit, %.preheader
  %wide.trip.count84 = zext nneg i32 %2 to i64
  br label %.lr.ph

.lr.ph:                                           ; preds = %.lr.ph.preheader, %.lr.ph
  %indvars.iv81 = phi i64 [ 0, %.lr.ph.preheader ], [ %indvars.iv.next82, %.lr.ph ]
  %7 = getelementptr inbounds nuw ptr, ptr %1, i64 %indvars.iv81
  %8 = load ptr, ptr %7, align 8, !tbaa !79
  tail call void @bitmap_writer_push_commit(ptr noundef %0, ptr noundef %8, i32 noundef 0)
  %indvars.iv.next82 = add nuw nsw i64 %indvars.iv81, 1
  %exitcond85.not = icmp eq i64 %indvars.iv.next82, %wide.trip.count84
  br i1 %exitcond85.not, label %._crit_edge, label %.lr.ph, !llvm.loop !123

9:                                                ; preds = %sane_qsort.exit
  %10 = getelementptr inbounds nuw i8, ptr %0, i64 128
  %11 = load i32, ptr %10, align 8, !tbaa !44
  %.not = icmp eq i32 %11, 0
  br i1 %.not, label %16, label %12

12:                                               ; preds = %9
  %13 = load ptr, ptr @the_repository, align 8, !tbaa !71
  %14 = tail call ptr @start_progress(ptr noundef %13, ptr noundef nonnull @.str.9, i64 noundef 0) #19
  %15 = getelementptr inbounds nuw i8, ptr %0, i64 120
  store ptr %14, ptr %15, align 8, !tbaa !72
  br label %16

16:                                               ; preds = %12, %9
  %17 = getelementptr inbounds nuw i8, ptr %0, i64 120
  br label %18

18:                                               ; preds = %.loopexit, %16
  %.1 = phi i32 [ 0, %16 ], [ %54, %.loopexit ]
  %19 = icmp ult i32 %.1, 101
  br i1 %19, label %next_commit_index.exit.thread, label %20

20:                                               ; preds = %18
  %21 = icmp ult i32 %.1, 20001
  br i1 %21, label %22, label %25

22:                                               ; preds = %20
  %23 = add nsw i32 %.1, -100
  %24 = tail call i32 @llvm.umin.i32(i32 %23, i32 100)
  br label %next_commit_index.exit

25:                                               ; preds = %20
  %26 = add i32 %.1, -20000
  %27 = tail call i32 @llvm.umin.i32(i32 %26, i32 5000)
  %28 = tail call i32 @llvm.umax.i32(i32 %27, i32 100)
  br label %next_commit_index.exit

next_commit_index.exit:                           ; preds = %22, %25
  %.0.i = phi i32 [ %24, %22 ], [ %28, %25 ]
  %29 = add i32 %.0.i, %.1
  %.not53 = icmp ult i32 %29, %2
  br i1 %.not53, label %33, label %57

next_commit_index.exit.thread:                    ; preds = %18
  %.not5361 = icmp ult i32 %.1, %2
  br i1 %.not5361, label %.thread, label %57

.thread:                                          ; preds = %next_commit_index.exit.thread
  %30 = zext nneg i32 %.1 to i64
  %31 = getelementptr inbounds nuw ptr, ptr %1, i64 %30
  %32 = load ptr, ptr %31, align 8, !tbaa !79
  br label %.loopexit

33:                                               ; preds = %next_commit_index.exit
  %34 = zext i32 %29 to i64
  %35 = getelementptr inbounds nuw ptr, ptr %1, i64 %34
  %36 = load ptr, ptr %35, align 8, !tbaa !79
  %37 = add nuw nsw i32 %.0.i, 1
  %wide.trip.count = zext nneg i32 %37 to i64
  br label %38

38:                                               ; preds = %33, %52
  %indvars.iv = phi i64 [ 0, %33 ], [ %indvars.iv.next, %52 ]
  %.14377 = phi ptr [ %36, %33 ], [ %.244.ph, %52 ]
  %39 = trunc nuw nsw i64 %indvars.iv to i32
  %40 = add i32 %.1, %39
  %41 = zext i32 %40 to i64
  %42 = getelementptr inbounds nuw ptr, ptr %1, i64 %41
  %43 = load ptr, ptr %42, align 8, !tbaa !79
  %44 = load i32, ptr %43, align 8
  %45 = and i32 %44, 67108864
  %.not55 = icmp eq i32 %45, 0
  br i1 %.not55, label %46, label %.loopexit

46:                                               ; preds = %38
  %47 = getelementptr inbounds nuw i8, ptr %43, i64 48
  %48 = load ptr, ptr %47, align 8, !tbaa !118
  %.not56 = icmp eq ptr %48, null
  br i1 %.not56, label %52, label %49

49:                                               ; preds = %46
  %50 = getelementptr inbounds nuw i8, ptr %48, i64 8
  %51 = load ptr, ptr %50, align 8, !tbaa !124
  %.not57 = icmp eq ptr %51, null
  %spec.select = select i1 %.not57, ptr %.14377, ptr %43
  br label %52

52:                                               ; preds = %49, %46
  %.244.ph = phi ptr [ %spec.select, %49 ], [ %.14377, %46 ]
  %indvars.iv.next = add nuw nsw i64 %indvars.iv, 1
  %exitcond.not = icmp eq i64 %indvars.iv.next, %wide.trip.count
  br i1 %exitcond.not, label %.loopexit, label %38, !llvm.loop !125

.loopexit:                                        ; preds = %52, %38, %.thread
  %.0.i6264 = phi i32 [ 0, %.thread ], [ %.0.i, %38 ], [ %.0.i, %52 ]
  %.042 = phi ptr [ %32, %.thread ], [ %.244.ph, %52 ], [ %43, %38 ]
  tail call void @bitmap_writer_push_commit(ptr noundef %0, ptr noundef %.042, i32 noundef 0)
  %53 = add i32 %.1, 1
  %54 = add i32 %53, %.0.i6264
  %55 = load ptr, ptr %17, align 8, !tbaa !72
  %56 = zext i32 %54 to i64
  tail call void @display_progress(ptr noundef %55, i64 noundef %56) #19
  br label %18

57:                                               ; preds = %next_commit_index.exit, %next_commit_index.exit.thread
  %58 = load i32, ptr @git_gettext_enabled, align 4, !tbaa !31
  %.not4.i.i = icmp eq i32 %58, 0
  br i1 %.not4.i.i, label %stop_progress.exit, label %59

59:                                               ; preds = %57
  %60 = tail call ptr @dcgettext(ptr noundef null, ptr noundef nonnull @.str.22, i32 noundef 5) #19
  br label %stop_progress.exit

stop_progress.exit:                               ; preds = %57, %59
  %.0.i.i = phi ptr [ %60, %59 ], [ @.str.22, %57 ]
  tail call void @stop_progress_msg(ptr noundef nonnull %17, ptr noundef %.0.i.i) #19
  br label %._crit_edge

._crit_edge:                                      ; preds = %.lr.ph, %.preheader, %stop_progress.exit
  tail call void @select_pseudo_merges(ptr noundef %0) #19
  ret void
}